(lp0
(lp1
S'/home/netpositive/workspace/3D_automation/Software/gitHub/TestDir/360 noscope.gif'
p2
aS'/home/netpositive/workspace/3D_automation/Software/gitHub/TestDir/water.jpg'
p3
aaS'/home/netpositive/workspace/3D_automation/Software/gitHub/TestDir'
p4
a.